; Function Attrs: mustprogress uwtable
define hidden noundef zeroext i1 @_ZN7testing8internal2RE12PartialMatchEPKcRKS1_(ptr noundef %0, ptr noundef nonnull align 8 dereferenceable(144) %1) local_unnamed_addr #3 align 2 {
  %3 = alloca %struct.regmatch_t, align 4
  %4 = getelementptr inbounds nuw i8, ptr %1, i64 8
  %5 = load i8, ptr %4, align 8, !range !8, !noundef !9
  %6 = trunc nuw i8 %5 to i1
  br i1 %6, label %7, label %11

7:                                                ; preds = %2
  call void @llvm.lifetime.start.p0(i64 8, ptr nonnull %3) #53
  %8 = getelementptr inbounds nuw i8, ptr %1, i64 80
  %9 = call i32 @regexec(ptr noundef nonnull %8, ptr noundef %0, i64 noundef 1, ptr noundef nonnull %3, i32 noundef 0)
  %10 = icmp eq i32 %9, 0
  call void @llvm.lifetime.end.p0(i64 8, ptr nonnull %3) #53
  br label %11

11:                                               ; preds = %2, %7
  %.0 = phi i1 [ %10, %7 ], [ false, %2 ]
  ret i1 %.0
}